; Function Attrs: nounwind uwtable
define void @Scl_End(ptr noundef captures(none) %0) local_unnamed_addr #0 {
  %2 = getelementptr inbounds nuw i8, ptr %0, i64 240
  %3 = load ptr, ptr %2, align 8, !tbaa !23
  %.not.i = icmp eq ptr %3, null
  br i1 %.not.i, label %Abc_SclLoad.exit, label %4

4:                                                ; preds = %1
  tail call fastcc void @Abc_SclLibFree(ptr noundef %3)
  store ptr null, ptr %2, align 8, !tbaa !23
  br label %Abc_SclLoad.exit

Abc_SclLoad.exit:                                 ; preds = %1, %4
  tail call fastcc void @Scl_ConUpdateMan(ptr noundef nonnull %0)
  ret void
}